target datalayout = "e-m:e-p270:32:32-p271:32:32-p272:64:64-i64:64-i128:128-f80:128-n8:16:32:64-S128"
target triple = "x86_64-pc-linux-gnu"

%struct.UCPTrie = type { ptr, %union.UCPTrieData, i32, i32, i32, i16, i8, i8, i32, i16, i16, i32, i32 }
%union.UCPTrieData = type { ptr }

@.str.10 = private unnamed_addr constant [1 x i8] zeroinitializer, align 1
@.str.14 = private unnamed_addr constant [3 x i8] c"  \00", align 1
@.str.15 = private unnamed_addr constant [21 x i8] c"    %s,\0A    { %s },\0A\00", align 1
@.str.16 = private unnamed_addr constant [82 x i8] c"    %ld, %ld,\0A    0x%lx, 0x%x,\0A    %d, %d,\0A    0, 0,\0A    0x%x, 0x%lx,\0A    0x%lx,\0A\00", align 1
@.str.17 = private unnamed_addr constant [171 x i8] c"indexLength = %ld\0AdataLength = %ld\0AhighStart = 0x%lx\0Ashifted12HighStart = 0x%x\0Atype = %d\0AvalueWidth = %d\0Aindex3NullOffset = 0x%x\0AdataNullOffset = 0x%lx\0AnullValue = 0x%lx\0A\00", align 1
@.str.18 = private unnamed_addr constant [44 x i8] c"static const uint16_t %s_trieIndex[%%ld]={\0A\00", align 1
@.str.19 = private unnamed_addr constant [43 x i8] c"static const uint%d_t %s_trieData[%%ld]={\0A\00", align 1
@.str.20 = private unnamed_addr constant [6 x i8] c"\0A};\0A\0A\00", align 1
@.str.21 = private unnamed_addr constant [13 x i8] c"index = [\0A  \00", align 1
@.str.22 = private unnamed_addr constant [15 x i8] c"data_%d = [\0A  \00", align 1
@.str.23 = private unnamed_addr constant [4 x i8] c"\0A]\0A\00", align 1
@.str.24 = private unnamed_addr constant [32 x i8] c"static const UCPTrie %s_trie={\0A\00", align 1
@.str.25 = private unnamed_addr constant [13 x i8] c"%s_trieIndex\00", align 1
@.str.26 = private unnamed_addr constant [12 x i8] c"%s_trieData\00", align 1
@.str.27 = private unnamed_addr constant [5 x i8] c"};\0A\0A\00", align 1

; Function Attrs: mustprogress uwtable
define void @usrc_writeUCPTrieStruct(ptr noundef %0, ptr noundef %1, ptr noundef %2, ptr noundef %3, ptr noundef %4, ptr noundef %5, i32 noundef %6) #1 {
  %8 = alloca ptr, align 8
  %9 = alloca ptr, align 8
  %10 = alloca ptr, align 8
  %11 = alloca ptr, align 8
  %12 = alloca ptr, align 8
  %13 = alloca ptr, align 8
  %14 = alloca i32, align 4
  %15 = alloca ptr, align 8
  store ptr %0, ptr %8, align 8, !tbaa !25
  store ptr %1, ptr %9, align 8, !tbaa !17
  store ptr %2, ptr %10, align 8, !tbaa !52
  store ptr %3, ptr %11, align 8, !tbaa !17
  store ptr %4, ptr %12, align 8, !tbaa !17
  store ptr %5, ptr %13, align 8, !tbaa !17
  store i32 %6, ptr %14, align 4, !tbaa !54
  %16 = load ptr, ptr %9, align 8, !tbaa !17
  %17 = icmp ne ptr %16, null
  br i1 %17, label %18, label %22

18:                                               ; preds = %7
  %19 = load ptr, ptr %9, align 8, !tbaa !17
  %20 = load ptr, ptr %8, align 8, !tbaa !25
  %21 = call i32 @fputs(ptr noundef %19, ptr noundef %20)
  br label %22

22:                                               ; preds = %18, %7
  %23 = load i32, ptr %14, align 4, !tbaa !54
  %24 = icmp eq i32 %23, 0
  br i1 %24, label %25, label %30

25:                                               ; preds = %22
  %26 = load ptr, ptr %8, align 8, !tbaa !25
  %27 = load ptr, ptr %11, align 8, !tbaa !17
  %28 = load ptr, ptr %12, align 8, !tbaa !17
  %29 = call i32 (ptr, ptr, ...) @fprintf(ptr noundef %26, ptr noundef @.str.15, ptr noundef %27, ptr noundef %28) #16
  br label %30

30:                                               ; preds = %25, %22
  call void @llvm.lifetime.start.p0(i64 8, ptr %15) #16
  %31 = load i32, ptr %14, align 4, !tbaa !54
  %32 = icmp eq i32 %31, 0
  %33 = select i1 %32, ptr @.str.16, ptr @.str.17
  store ptr %33, ptr %15, align 8, !tbaa !17
  %34 = load ptr, ptr %8, align 8, !tbaa !25
  %35 = load ptr, ptr %15, align 8, !tbaa !17
  %36 = load ptr, ptr %10, align 8, !tbaa !52
  %37 = getelementptr inbounds nuw %struct.UCPTrie, ptr %36, i32 0, i32 2
  %38 = load i32, ptr %37, align 8, !tbaa !58
  %39 = sext i32 %38 to i64
  %40 = load ptr, ptr %10, align 8, !tbaa !52
  %41 = getelementptr inbounds nuw %struct.UCPTrie, ptr %40, i32 0, i32 3
  %42 = load i32, ptr %41, align 4, !tbaa !60
  %43 = sext i32 %42 to i64
  %44 = load ptr, ptr %10, align 8, !tbaa !52
  %45 = getelementptr inbounds nuw %struct.UCPTrie, ptr %44, i32 0, i32 4
  %46 = load i32, ptr %45, align 8, !tbaa !61
  %47 = sext i32 %46 to i64
  %48 = load ptr, ptr %10, align 8, !tbaa !52
  %49 = getelementptr inbounds nuw %struct.UCPTrie, ptr %48, i32 0, i32 5
  %50 = load i16, ptr %49, align 4, !tbaa !62
  %51 = zext i16 %50 to i32
  %52 = load ptr, ptr %10, align 8, !tbaa !52
  %53 = getelementptr inbounds nuw %struct.UCPTrie, ptr %52, i32 0, i32 6
  %54 = load i8, ptr %53, align 2, !tbaa !63
  %55 = sext i8 %54 to i32
  %56 = load ptr, ptr %10, align 8, !tbaa !52
  %57 = getelementptr inbounds nuw %struct.UCPTrie, ptr %56, i32 0, i32 7
  %58 = load i8, ptr %57, align 1, !tbaa !59
  %59 = sext i8 %58 to i32
  %60 = load ptr, ptr %10, align 8, !tbaa !52
  %61 = getelementptr inbounds nuw %struct.UCPTrie, ptr %60, i32 0, i32 10
  %62 = load i16, ptr %61, align 2, !tbaa !64
  %63 = zext i16 %62 to i32
  %64 = load ptr, ptr %10, align 8, !tbaa !52
  %65 = getelementptr inbounds nuw %struct.UCPTrie, ptr %64, i32 0, i32 11
  %66 = load i32, ptr %65, align 8, !tbaa !65
  %67 = sext i32 %66 to i64
  %68 = load ptr, ptr %10, align 8, !tbaa !52
  %69 = getelementptr inbounds nuw %struct.UCPTrie, ptr %68, i32 0, i32 12
  %70 = load i32, ptr %69, align 4, !tbaa !66
  %71 = zext i32 %70 to i64
  %72 = call i32 (ptr, ptr, ...) @fprintf(ptr noundef %34, ptr noundef %35, i64 noundef %39, i64 noundef %43, i64 noundef %47, i32 noundef %51, i32 noundef %55, i32 noundef %59, i32 noundef %63, i64 noundef %67, i64 noundef %71) #16
  %73 = load ptr, ptr %13, align 8, !tbaa !17
  %74 = icmp ne ptr %73, null
  br i1 %74, label %75, label %79

75:                                               ; preds = %30
  %76 = load ptr, ptr %13, align 8, !tbaa !17
  %77 = load ptr, ptr %8, align 8, !tbaa !25
  %78 = call i32 @fputs(ptr noundef %76, ptr noundef %77)
  br label %79

79:                                               ; preds = %75, %30
  call void @llvm.lifetime.end.p0(i64 8, ptr %15) #16
  ret void
}

; Function Attrs: mustprogress uwtable
define void @usrc_writeUCPTrieArrays(ptr noundef %0, ptr noundef %1, ptr noundef %2, ptr noundef %3, ptr noundef %4, i32 noundef %5) #1 {
  %7 = alloca ptr, align 8
  %8 = alloca ptr, align 8
  %9 = alloca ptr, align 8
  %10 = alloca ptr, align 8
  %11 = alloca ptr, align 8
  %12 = alloca i32, align 4
  %13 = alloca ptr, align 8
  %14 = alloca i32, align 4
  store ptr %0, ptr %7, align 8, !tbaa !25
  store ptr %1, ptr %8, align 8, !tbaa !17
  store ptr %2, ptr %9, align 8, !tbaa !17
  store ptr %3, ptr %10, align 8, !tbaa !52
  store ptr %4, ptr %11, align 8, !tbaa !17
  store i32 %5, ptr %12, align 4, !tbaa !54
  call void @llvm.lifetime.start.p0(i64 8, ptr %13) #16
  %15 = load i32, ptr %12, align 4, !tbaa !54
  %16 = icmp eq i32 %15, 1
  %17 = select i1 %16, ptr @.str.14, ptr @.str.10
  store ptr %17, ptr %13, align 8, !tbaa !17
  %18 = load ptr, ptr %7, align 8, !tbaa !25
  %19 = load ptr, ptr %8, align 8, !tbaa !17
  %20 = load ptr, ptr %10, align 8, !tbaa !52
  %21 = getelementptr inbounds nuw %struct.UCPTrie, ptr %20, i32 0, i32 0
  %22 = load ptr, ptr %21, align 8, !tbaa !56
  %23 = load ptr, ptr %10, align 8, !tbaa !52
  %24 = getelementptr inbounds nuw %struct.UCPTrie, ptr %23, i32 0, i32 2
  %25 = load i32, ptr %24, align 8, !tbaa !58
  %26 = load ptr, ptr %13, align 8, !tbaa !17
  %27 = load ptr, ptr %11, align 8, !tbaa !17
  call void @usrc_writeArray(ptr noundef %18, ptr noundef %19, ptr noundef %22, i32 noundef 16, i32 noundef %25, ptr noundef %26, ptr noundef %27)
  call void @llvm.lifetime.start.p0(i64 4, ptr %14) #16
  %28 = load ptr, ptr %10, align 8, !tbaa !52
  %29 = getelementptr inbounds nuw %struct.UCPTrie, ptr %28, i32 0, i32 7
  %30 = load i8, ptr %29, align 1, !tbaa !59
  %31 = sext i8 %30 to i32
  %32 = icmp eq i32 %31, 0
  br i1 %32, label %33, label %34

33:                                               ; preds = %6
  br label %50

34:                                               ; preds = %6
  %35 = load ptr, ptr %10, align 8, !tbaa !52
  %36 = getelementptr inbounds nuw %struct.UCPTrie, ptr %35, i32 0, i32 7
  %37 = load i8, ptr %36, align 1, !tbaa !59
  %38 = sext i8 %37 to i32
  %39 = icmp eq i32 %38, 1
  br i1 %39, label %40, label %41

40:                                               ; preds = %34
  br label %48

41:                                               ; preds = %34
  %42 = load ptr, ptr %10, align 8, !tbaa !52
  %43 = getelementptr inbounds nuw %struct.UCPTrie, ptr %42, i32 0, i32 7
  %44 = load i8, ptr %43, align 1, !tbaa !59
  %45 = sext i8 %44 to i32
  %46 = icmp eq i32 %45, 2
  %47 = select i1 %46, i32 8, i32 0
  br label %48

48:                                               ; preds = %41, %40
  %49 = phi i32 [ 32, %40 ], [ %47, %41 ]
  br label %50

50:                                               ; preds = %48, %33
  %51 = phi i32 [ 16, %33 ], [ %49, %48 ]
  store i32 %51, ptr %14, align 4, !tbaa !14
  %52 = load ptr, ptr %7, align 8, !tbaa !25
  %53 = load ptr, ptr %9, align 8, !tbaa !17
  %54 = load ptr, ptr %10, align 8, !tbaa !52
  %55 = getelementptr inbounds nuw %struct.UCPTrie, ptr %54, i32 0, i32 1
  %56 = load ptr, ptr %55, align 8, !tbaa !27
  %57 = load i32, ptr %14, align 4, !tbaa !14
  %58 = load ptr, ptr %10, align 8, !tbaa !52
  %59 = getelementptr inbounds nuw %struct.UCPTrie, ptr %58, i32 0, i32 3
  %60 = load i32, ptr %59, align 4, !tbaa !60
  %61 = load ptr, ptr %13, align 8, !tbaa !17
  %62 = load ptr, ptr %11, align 8, !tbaa !17
  call void @usrc_writeArray(ptr noundef %52, ptr noundef %53, ptr noundef %56, i32 noundef %57, i32 noundef %60, ptr noundef %61, ptr noundef %62)
  call void @llvm.lifetime.end.p0(i64 4, ptr %14) #16
  call void @llvm.lifetime.end.p0(i64 8, ptr %13) #16
  ret void
}

; Function Attrs: mustprogress uwtable
define void @usrc_writeUCPTrie(ptr noundef %0, ptr noundef %1, ptr noundef %2, i32 noundef %3) #1 {
  %5 = alloca ptr, align 8
  %6 = alloca ptr, align 8
  %7 = alloca ptr, align 8
  %8 = alloca i32, align 4
  %9 = alloca i32, align 4
  %10 = alloca [100 x i8], align 16
  %11 = alloca [100 x i8], align 16
  %12 = alloca [100 x i8], align 16
  %13 = alloca [100 x i8], align 16
  store ptr %0, ptr %5, align 8, !tbaa !25
  store ptr %1, ptr %6, align 8, !tbaa !17
  store ptr %2, ptr %7, align 8, !tbaa !52
  store i32 %3, ptr %8, align 4, !tbaa !54
  call void @llvm.lifetime.start.p0(i64 4, ptr %9) #16
  %14 = load ptr, ptr %7, align 8, !tbaa !52
  %15 = getelementptr inbounds nuw %struct.UCPTrie, ptr %14, i32 0, i32 7
  %16 = load i8, ptr %15, align 1, !tbaa !59
  %17 = sext i8 %16 to i32
  %18 = icmp eq i32 %17, 0
  br i1 %18, label %19, label %20

19:                                               ; preds = %4
  br label %36

20:                                               ; preds = %4
  %21 = load ptr, ptr %7, align 8, !tbaa !52
  %22 = getelementptr inbounds nuw %struct.UCPTrie, ptr %21, i32 0, i32 7
  %23 = load i8, ptr %22, align 1, !tbaa !59
  %24 = sext i8 %23 to i32
  %25 = icmp eq i32 %24, 1
  br i1 %25, label %26, label %27

26:                                               ; preds = %20
  br label %34

27:                                               ; preds = %20
  %28 = load ptr, ptr %7, align 8, !tbaa !52
  %29 = getelementptr inbounds nuw %struct.UCPTrie, ptr %28, i32 0, i32 7
  %30 = load i8, ptr %29, align 1, !tbaa !59
  %31 = sext i8 %30 to i32
  %32 = icmp eq i32 %31, 2
  %33 = select i1 %32, i32 8, i32 0
  br label %34

34:                                               ; preds = %27, %26
  %35 = phi i32 [ 32, %26 ], [ %33, %27 ]
  br label %36

36:                                               ; preds = %34, %19
  %37 = phi i32 [ 16, %19 ], [ %35, %34 ]
  store i32 %37, ptr %9, align 4, !tbaa !14
  call void @llvm.lifetime.start.p0(i64 100, ptr %10) #16
  call void @llvm.lifetime.start.p0(i64 100, ptr %11) #16
  call void @llvm.lifetime.start.p0(i64 100, ptr %12) #16
  call void @llvm.lifetime.start.p0(i64 100, ptr %13) #16
  %38 = load i32, ptr %8, align 4, !tbaa !54
  switch i32 %38, label %57 [
    i32 0, label %39
    i32 1, label %49
  ]

39:                                               ; preds = %36
  %40 = getelementptr inbounds [100 x i8], ptr %10, i64 0, i64 0
  %41 = load ptr, ptr %6, align 8, !tbaa !17
  %42 = call i32 (ptr, i64, ptr, ...) @snprintf(ptr noundef %40, i64 noundef 100, ptr noundef @.str.18, ptr noundef %41) #16
  %43 = getelementptr inbounds [100 x i8], ptr %11, i64 0, i64 0
  %44 = load i32, ptr %9, align 4, !tbaa !14
  %45 = load ptr, ptr %6, align 8, !tbaa !17
  %46 = call i32 (ptr, i64, ptr, ...) @snprintf(ptr noundef %43, i64 noundef 100, ptr noundef @.str.19, i32 noundef %44, ptr noundef %45) #16
  %47 = getelementptr inbounds [100 x i8], ptr %12, i64 0, i64 0
  %48 = call i32 (ptr, i64, ptr, ...) @snprintf(ptr noundef %47, i64 noundef 100, ptr noundef @.str.20) #16
  br label %58

49:                                               ; preds = %36
  %50 = getelementptr inbounds [100 x i8], ptr %10, i64 0, i64 0
  %51 = call i32 (ptr, i64, ptr, ...) @snprintf(ptr noundef %50, i64 noundef 100, ptr noundef @.str.21) #16
  %52 = getelementptr inbounds [100 x i8], ptr %11, i64 0, i64 0
  %53 = load i32, ptr %9, align 4, !tbaa !14
  %54 = call i32 (ptr, i64, ptr, ...) @snprintf(ptr noundef %52, i64 noundef 100, ptr noundef @.str.22, i32 noundef %53) #16
  %55 = getelementptr inbounds [100 x i8], ptr %12, i64 0, i64 0
  %56 = call i32 (ptr, i64, ptr, ...) @snprintf(ptr noundef %55, i64 noundef 100, ptr noundef @.str.23) #16
  br label %58

57:                                               ; preds = %36
  call void @abort() #18
  unreachable

58:                                               ; preds = %49, %39
  %59 = load ptr, ptr %5, align 8, !tbaa !25
  %60 = getelementptr inbounds [100 x i8], ptr %10, i64 0, i64 0
  %61 = getelementptr inbounds [100 x i8], ptr %11, i64 0, i64 0
  %62 = load ptr, ptr %7, align 8, !tbaa !52
  %63 = getelementptr inbounds [100 x i8], ptr %12, i64 0, i64 0
  %64 = load i32, ptr %8, align 4, !tbaa !54
  call void @usrc_writeUCPTrieArrays(ptr noundef %59, ptr noundef %60, ptr noundef %61, ptr noundef %62, ptr noundef %63, i32 noundef %64)
  %65 = load i32, ptr %8, align 4, !tbaa !54
  switch i32 %65, label %83 [
    i32 0, label %66
    i32 1, label %78
  ]

66:                                               ; preds = %58
  %67 = getelementptr inbounds [100 x i8], ptr %10, i64 0, i64 0
  %68 = load ptr, ptr %6, align 8, !tbaa !17
  %69 = call i32 (ptr, i64, ptr, ...) @snprintf(ptr noundef %67, i64 noundef 100, ptr noundef @.str.24, ptr noundef %68) #16
  %70 = getelementptr inbounds [100 x i8], ptr %11, i64 0, i64 0
  %71 = load ptr, ptr %6, align 8, !tbaa !17
  %72 = call i32 (ptr, i64, ptr, ...) @snprintf(ptr noundef %70, i64 noundef 100, ptr noundef @.str.25, ptr noundef %71) #16
  %73 = getelementptr inbounds [100 x i8], ptr %12, i64 0, i64 0
  %74 = load ptr, ptr %6, align 8, !tbaa !17
  %75 = call i32 (ptr, i64, ptr, ...) @snprintf(ptr noundef %73, i64 noundef 100, ptr noundef @.str.26, ptr noundef %74) #16
  %76 = getelementptr inbounds [100 x i8], ptr %13, i64 0, i64 0
  %77 = call i32 (ptr, i64, ptr, ...) @snprintf(ptr noundef %76, i64 noundef 100, ptr noundef @.str.27) #16
  br label %84

78:                                               ; preds = %58
  %79 = getelementptr inbounds [100 x i8], ptr %10, i64 0, i64 0
  store i8 0, ptr %79, align 16, !tbaa !27
  %80 = getelementptr inbounds [100 x i8], ptr %11, i64 0, i64 0
  store i8 0, ptr %80, align 16, !tbaa !27
  %81 = getelementptr inbounds [100 x i8], ptr %12, i64 0, i64 0
  store i8 0, ptr %81, align 16, !tbaa !27
  %82 = getelementptr inbounds [100 x i8], ptr %13, i64 0, i64 0
  store i8 0, ptr %82, align 16, !tbaa !27
  br label %84

83:                                               ; preds = %58
  call void @abort() #18
  unreachable

84:                                               ; preds = %78, %66
  %85 = load ptr, ptr %5, align 8, !tbaa !25
  %86 = getelementptr inbounds [100 x i8], ptr %10, i64 0, i64 0
  %87 = load ptr, ptr %7, align 8, !tbaa !52
  %88 = getelementptr inbounds [100 x i8], ptr %11, i64 0, i64 0
  %89 = getelementptr inbounds [100 x i8], ptr %12, i64 0, i64 0
  %90 = getelementptr inbounds [100 x i8], ptr %13, i64 0, i64 0
  %91 = load i32, ptr %8, align 4, !tbaa !54
  call void @usrc_writeUCPTrieStruct(ptr noundef %85, ptr noundef %86, ptr noundef %87, ptr noundef %88, ptr noundef %89, ptr noundef %90, i32 noundef %91)
  call void @llvm.lifetime.end.p0(i64 100, ptr %13) #16
  call void @llvm.lifetime.end.p0(i64 100, ptr %12) #16
  call void @llvm.lifetime.end.p0(i64 100, ptr %11) #16
  call void @llvm.lifetime.end.p0(i64 100, ptr %10) #16
  call void @llvm.lifetime.end.p0(i64 4, ptr %9) #16
  ret void
}