; Function Attrs: mustprogress nofree nounwind uwtable
define void @usrc_writeUCPTrie(ptr noundef captures(none) %0, ptr noundef %1, ptr noundef readonly captures(none) %2, i32 noundef %3) local_unnamed_addr #13 {
  %5 = alloca [100 x i8], align 16
  %6 = alloca [100 x i8], align 16
  %7 = alloca [100 x i8], align 16
  %8 = alloca [100 x i8], align 16
  %9 = getelementptr inbounds nuw i8, ptr %2, i64 31
  %10 = load i8, ptr %9, align 1, !tbaa !41
  switch i8 %10, label %11 [
    i8 0, label %14
    i8 1, label %.fold.split
  ]

11:                                               ; preds = %4
  %12 = icmp eq i8 %10, 2
  %13 = select i1 %12, i32 8, i32 0
  br label %14

.fold.split:                                      ; preds = %4
  br label %14

14:                                               ; preds = %4, %.fold.split, %11
  %15 = phi i32 [ 16, %4 ], [ %13, %11 ], [ 32, %.fold.split ]
  call void @llvm.lifetime.start.p0(i64 100, ptr nonnull %5) #24
  call void @llvm.lifetime.start.p0(i64 100, ptr nonnull %6) #24
  call void @llvm.lifetime.start.p0(i64 100, ptr nonnull %7) #24
  call void @llvm.lifetime.start.p0(i64 100, ptr nonnull %8) #24
  switch i32 %3, label %21 [
    i32 0, label %16
    i32 1, label %19
  ]

16:                                               ; preds = %14
  %17 = call i32 (ptr, i64, ptr, ...) @snprintf(ptr noundef nonnull dereferenceable(1) %5, i64 noundef 100, ptr noundef nonnull @.str.18, ptr noundef %1) #24
  %18 = call i32 (ptr, i64, ptr, ...) @snprintf(ptr noundef nonnull dereferenceable(1) %6, i64 noundef 100, ptr noundef nonnull @.str.19, i32 noundef %15, ptr noundef %1) #24
  call void @llvm.memcpy.p0.p0.i64(ptr noundef nonnull align 16 dereferenceable(6) %7, ptr noundef nonnull align 1 dereferenceable(6) @.str.20, i64 6, i1 false)
  br label %22

19:                                               ; preds = %14
  call void @llvm.memcpy.p0.p0.i64(ptr noundef nonnull align 16 dereferenceable(13) %5, ptr noundef nonnull align 1 dereferenceable(13) @.str.21, i64 13, i1 false)
  %20 = call i32 (ptr, i64, ptr, ...) @snprintf(ptr noundef nonnull dereferenceable(1) %6, i64 noundef 100, ptr noundef nonnull @.str.22, i32 noundef %15) #24
  store i32 679178, ptr %7, align 16
  br label %22

21:                                               ; preds = %14
  tail call void @abort() #26
  unreachable

22:                                               ; preds = %19, %16
  %23 = icmp eq i32 %3, 1
  %24 = select i1 %23, ptr @.str.14, ptr @.str.10
  %25 = load ptr, ptr %2, align 8, !tbaa !38
  %26 = getelementptr inbounds nuw i8, ptr %2, i64 16
  %27 = load i32, ptr %26, align 8, !tbaa !40
  call void @usrc_writeArray(ptr noundef %0, ptr noundef nonnull %5, ptr noundef %25, i32 noundef 16, i32 noundef %27, ptr noundef nonnull %24, ptr noundef nonnull %7)
  %28 = load i8, ptr %9, align 1, !tbaa !41
  switch i8 %28, label %29 [
    i8 0, label %usrc_writeUCPTrieArrays.exit
    i8 1, label %.fold.split.i
  ]

29:                                               ; preds = %22
  %30 = icmp eq i8 %28, 2
  %31 = select i1 %30, i32 8, i32 0
  br label %usrc_writeUCPTrieArrays.exit

.fold.split.i:                                    ; preds = %22
  br label %usrc_writeUCPTrieArrays.exit

usrc_writeUCPTrieArrays.exit:                     ; preds = %22, %29, %.fold.split.i
  %32 = phi i32 [ 16, %22 ], [ %31, %29 ], [ 32, %.fold.split.i ]
  %33 = getelementptr inbounds nuw i8, ptr %2, i64 8
  %34 = load ptr, ptr %33, align 8, !tbaa !15
  %35 = getelementptr inbounds nuw i8, ptr %2, i64 20
  %36 = load i32, ptr %35, align 4, !tbaa !42
  call void @usrc_writeArray(ptr noundef %0, ptr noundef nonnull %6, ptr noundef %34, i32 noundef %32, i32 noundef %36, ptr noundef nonnull %24, ptr noundef nonnull %7)
  %switch = icmp eq i32 %3, 0
  br i1 %switch, label %39, label %37

37:                                               ; preds = %usrc_writeUCPTrieArrays.exit
  store i8 0, ptr %5, align 16, !tbaa !15
  store i8 0, ptr %6, align 16, !tbaa !15
  store i8 0, ptr %7, align 16, !tbaa !15
  store i8 0, ptr %8, align 16, !tbaa !15
  %38 = call i32 @fputs(ptr noundef nonnull readonly %5, ptr noundef %0)
  br label %usrc_writeUCPTrieStruct.exit

39:                                               ; preds = %usrc_writeUCPTrieArrays.exit
  %40 = call i32 (ptr, i64, ptr, ...) @snprintf(ptr noundef nonnull dereferenceable(1) %5, i64 noundef 100, ptr noundef nonnull @.str.24, ptr noundef %1) #24
  %41 = call i32 (ptr, i64, ptr, ...) @snprintf(ptr noundef nonnull dereferenceable(1) %6, i64 noundef 100, ptr noundef nonnull @.str.25, ptr noundef %1) #24
  %42 = call i32 (ptr, i64, ptr, ...) @snprintf(ptr noundef nonnull dereferenceable(1) %7, i64 noundef 100, ptr noundef nonnull @.str.26, ptr noundef %1) #24
  call void @llvm.memcpy.p0.p0.i64(ptr noundef nonnull align 16 dereferenceable(5) %8, ptr noundef nonnull align 1 dereferenceable(5) @.str.27, i64 5, i1 false)
  %43 = call i32 @fputs(ptr noundef nonnull readonly %5, ptr noundef %0)
  %44 = call i32 (ptr, ptr, ...) @fprintf(ptr noundef %0, ptr noundef nonnull @.str.15, ptr noundef nonnull %6, ptr noundef nonnull %7) #24
  br label %usrc_writeUCPTrieStruct.exit

usrc_writeUCPTrieStruct.exit:                     ; preds = %37, %39
  %45 = phi ptr [ @.str.16, %39 ], [ @.str.17, %37 ]
  %46 = load i32, ptr %26, align 8, !tbaa !40
  %47 = sext i32 %46 to i64
  %48 = load i32, ptr %35, align 4, !tbaa !42
  %49 = sext i32 %48 to i64
  %50 = getelementptr inbounds nuw i8, ptr %2, i64 24
  %51 = load i32, ptr %50, align 8, !tbaa !43
  %52 = sext i32 %51 to i64
  %53 = getelementptr inbounds nuw i8, ptr %2, i64 28
  %54 = load i16, ptr %53, align 4, !tbaa !44
  %55 = zext i16 %54 to i32
  %56 = getelementptr inbounds nuw i8, ptr %2, i64 30
  %57 = load i8, ptr %56, align 2, !tbaa !45
  %58 = sext i8 %57 to i32
  %59 = load i8, ptr %9, align 1, !tbaa !41
  %60 = sext i8 %59 to i32
  %61 = getelementptr inbounds nuw i8, ptr %2, i64 38
  %62 = load i16, ptr %61, align 2, !tbaa !46
  %63 = zext i16 %62 to i32
  %64 = getelementptr inbounds nuw i8, ptr %2, i64 40
  %65 = load i32, ptr %64, align 8, !tbaa !47
  %66 = sext i32 %65 to i64
  %67 = getelementptr inbounds nuw i8, ptr %2, i64 44
  %68 = load i32, ptr %67, align 4, !tbaa !48
  %69 = zext i32 %68 to i64
  %70 = call i32 (ptr, ptr, ...) @fprintf(ptr noundef %0, ptr noundef nonnull %45, i64 noundef %47, i64 noundef %49, i64 noundef %52, i32 noundef %55, i32 noundef %58, i32 noundef %60, i32 noundef %63, i64 noundef %66, i64 noundef %69) #24
  %71 = call i32 @fputs(ptr noundef nonnull readonly %8, ptr noundef %0)
  call void @llvm.lifetime.end.p0(i64 100, ptr nonnull %8) #24
  call void @llvm.lifetime.end.p0(i64 100, ptr nonnull %7) #24
  call void @llvm.lifetime.end.p0(i64 100, ptr nonnull %6) #24
  call void @llvm.lifetime.end.p0(i64 100, ptr nonnull %5) #24
  ret void
}